; Function Attrs: nounwind uwtable
define hidden zeroext i1 @SDL_RenderRects_REAL(ptr noundef %0, ptr noundef readonly captures(address_is_null) %1, i32 noundef %2) local_unnamed_addr #0 {
  %4 = alloca [5 x %struct.SDL_FPoint], align 16
  %5 = tail call zeroext i1 @SDL_ObjectValid(ptr noundef %0, i32 noundef 2) #15
  br i1 %5, label %8, label %6

6:                                                ; preds = %3
  %7 = tail call zeroext i1 (ptr, ...) @SDL_SetError_REAL(ptr noundef nonnull @.str.2, ptr noundef nonnull @.str.5) #15
  br label %.loopexit

8:                                                ; preds = %3
  %9 = getelementptr inbounds nuw i8, ptr %0, i64 688
  %10 = load i8, ptr %9, align 8, !range !3, !noundef !4
  %11 = trunc nuw i8 %10 to i1
  br i1 %11, label %12, label %14

12:                                               ; preds = %8
  %13 = tail call zeroext i1 (ptr, ...) @SDL_SetError_REAL(ptr noundef nonnull @.str.29) #15
  br label %.loopexit

14:                                               ; preds = %8
  %.not = icmp eq ptr %1, null
  br i1 %.not, label %15, label %17

15:                                               ; preds = %14
  %16 = tail call zeroext i1 (ptr, ...) @SDL_SetError_REAL(ptr noundef nonnull @.str.2, ptr noundef nonnull @.str.75) #15
  br label %.loopexit

17:                                               ; preds = %14
  %18 = icmp slt i32 %2, 1
  br i1 %18, label %.loopexit, label %.preheader

.preheader:                                       ; preds = %17
  %19 = getelementptr inbounds nuw i8, ptr %4, i64 4
  %20 = getelementptr inbounds nuw i8, ptr %4, i64 8
  %21 = getelementptr inbounds nuw i8, ptr %4, i64 12
  %22 = getelementptr inbounds nuw i8, ptr %4, i64 16
  %23 = getelementptr inbounds nuw i8, ptr %4, i64 20
  %24 = getelementptr inbounds nuw i8, ptr %4, i64 24
  %25 = getelementptr inbounds nuw i8, ptr %4, i64 28
  %26 = getelementptr inbounds nuw i8, ptr %4, i64 32
  %27 = getelementptr inbounds nuw i8, ptr %4, i64 36
  %wide.trip.count = zext nneg i32 %2 to i64
  br label %28

28:                                               ; preds = %SDL_RenderRect_REAL.exit, %.preheader
  %indvars.iv = phi i64 [ 0, %.preheader ], [ %indvars.iv.next, %SDL_RenderRect_REAL.exit ]
  %29 = getelementptr inbounds nuw %struct.SDL_FRect, ptr %1, i64 %indvars.iv
  call void @llvm.lifetime.start.p0(i64 40, ptr nonnull %4) #15
  %30 = call zeroext i1 @SDL_ObjectValid(ptr noundef nonnull %0, i32 noundef 2) #15
  %.0.sroa.gep23.i = getelementptr inbounds nuw i8, ptr %29, i64 4
  %.0.sroa.gep29.i = getelementptr inbounds nuw i8, ptr %29, i64 8
  %.0.sroa.gep44.i = getelementptr inbounds nuw i8, ptr %29, i64 12
  br i1 %30, label %33, label %31

31:                                               ; preds = %28
  %32 = call zeroext i1 (ptr, ...) @SDL_SetError_REAL(ptr noundef nonnull @.str.2, ptr noundef nonnull @.str.5) #15
  br label %SDL_RenderRect_REAL.exit.thread

33:                                               ; preds = %28
  %34 = load i8, ptr %9, align 8, !range !3, !noundef !4
  %35 = trunc nuw i8 %34 to i1
  br i1 %35, label %36, label %SDL_RenderRect_REAL.exit

36:                                               ; preds = %33
  %37 = call zeroext i1 (ptr, ...) @SDL_SetError_REAL(ptr noundef nonnull @.str.29) #15
  br label %SDL_RenderRect_REAL.exit.thread

SDL_RenderRect_REAL.exit.thread:                  ; preds = %36, %31
  call void @llvm.lifetime.end.p0(i64 40, ptr nonnull %4) #15
  br label %.loopexit

SDL_RenderRect_REAL.exit:                         ; preds = %33
  %.pre.i = load float, ptr %29, align 4
  %.pre61.i = load float, ptr %.0.sroa.gep23.i, align 4
  %.pre62.i = load float, ptr %.0.sroa.gep29.i, align 4
  %.pre63.i = load float, ptr %.0.sroa.gep44.i, align 4
  store float %.pre.i, ptr %4, align 16
  store float %.pre61.i, ptr %19, align 4
  %38 = fadd float %.pre.i, %.pre62.i
  %39 = fadd float %38, -1.000000e+00
  store float %39, ptr %20, align 8
  store float %.pre61.i, ptr %21, align 4
  store float %39, ptr %22, align 16
  %40 = fadd float %.pre61.i, %.pre63.i
  %41 = fadd float %40, -1.000000e+00
  store float %41, ptr %23, align 4
  store float %.pre.i, ptr %24, align 8
  store float %41, ptr %25, align 4
  store float %.pre.i, ptr %26, align 16
  store float %.pre61.i, ptr %27, align 4
  %42 = call zeroext i1 @SDL_RenderLines_REAL(ptr noundef nonnull %0, ptr noundef nonnull %4, i32 noundef 5)
  call void @llvm.lifetime.end.p0(i64 40, ptr nonnull %4) #15
  %indvars.iv.next = add nuw nsw i64 %indvars.iv, 1
  %exitcond.not = icmp ne i64 %indvars.iv.next, %wide.trip.count
  %or.cond.not = select i1 %42, i1 %exitcond.not, i1 false
  br i1 %or.cond.not, label %28, label %.loopexit, !llvm.loop !29

.loopexit:                                        ; preds = %SDL_RenderRect_REAL.exit, %SDL_RenderRect_REAL.exit.thread, %17, %15, %12, %6
  %.010 = phi i1 [ false, %12 ], [ %16, %15 ], [ false, %6 ], [ true, %17 ], [ false, %SDL_RenderRect_REAL.exit.thread ], [ %42, %SDL_RenderRect_REAL.exit ]
  ret i1 %.010
}